; ModuleID = 'source-C-CXX/35/91.c'
source_filename = "source-C-CXX/35/91.c"
target datalayout = "e-m:e-p270:32:32-p271:32:32-p272:64:64-i64:64-f80:128-n8:16:32:64-S128"
target triple = "x86_64-pc-linux-gnu"

@.str = private unnamed_addr constant [6 x i8] c"%s %s\00", align 1
@.str.1 = private unnamed_addr constant [3 x i8] c"NO\00", align 1
@.str.2 = private unnamed_addr constant [4 x i8] c"YES\00", align 1

; Function Attrs: nofree nounwind sspstrong uwtable
define dso_local void @main() local_unnamed_addr #0 {
  %1 = alloca [100 x i8], align 16
  %2 = alloca [100 x i8], align 16
  %3 = getelementptr inbounds [100 x i8], [100 x i8]* %1, i64 0, i64 0
  call void @llvm.lifetime.start.p0i8(i64 100, i8* nonnull %3) #4
  %4 = getelementptr inbounds [100 x i8], [100 x i8]* %2, i64 0, i64 0
  call void @llvm.lifetime.start.p0i8(i64 100, i8* nonnull %4) #4
  %5 = call i32 (i8*, ...) @__isoc99_scanf(i8* getelementptr inbounds ([6 x i8], [6 x i8]* @.str, i64 0, i64 0), i8* nonnull %3, i8* nonnull %4)
  %6 = call i64 @strlen(i8* noundef nonnull %3) #5
  %7 = call i64 @strlen(i8* noundef nonnull %4) #5
  %8 = icmp eq i64 %6, %7
  br i1 %8, label %9, label %37

9:                                                ; preds = %0
  %10 = trunc i64 %6 to i32
  %11 = shl i64 %6, 32
  %12 = ashr exact i64 %11, 32
  %13 = getelementptr inbounds [100 x i8], [100 x i8]* %1, i64 0, i64 %12
  %14 = getelementptr inbounds [100 x i8], [100 x i8]* %2, i64 0, i64 %12
  %15 = icmp sgt i64 %11, 0
  br i1 %15, label %16, label %33

16:                                               ; preds = %9, %29
  %17 = phi i8* [ %31, %29 ], [ %3, %9 ]
  %18 = phi i32 [ %30, %29 ], [ 0, %9 ]
  %19 = load i8, i8* %17, align 1, !tbaa !5
  br label %20

20:                                               ; preds = %16, %24
  %21 = phi i8* [ %4, %16 ], [ %25, %24 ]
  %22 = load i8, i8* %21, align 1, !tbaa !5
  %23 = icmp eq i8 %19, %22
  br i1 %23, label %27, label %24

24:                                               ; preds = %20
  %25 = getelementptr inbounds i8, i8* %21, i64 1
  %26 = icmp ult i8* %25, %14
  br i1 %26, label %20, label %29, !llvm.loop !8

27:                                               ; preds = %20
  %28 = add nsw i32 %18, 1
  store i8 0, i8* %21, align 1, !tbaa !5
  br label %29

29:                                               ; preds = %24, %27
  %30 = phi i32 [ %28, %27 ], [ %18, %24 ]
  %31 = getelementptr inbounds i8, i8* %17, i64 1
  %32 = icmp ult i8* %31, %13
  br i1 %32, label %16, label %33, !llvm.loop !10

33:                                               ; preds = %29, %9
  %34 = phi i32 [ 0, %9 ], [ %30, %29 ]
  %35 = icmp eq i32 %34, %10
  %36 = select i1 %35, i8* getelementptr inbounds ([4 x i8], [4 x i8]* @.str.2, i64 0, i64 0), i8* getelementptr inbounds ([3 x i8], [3 x i8]* @.str.1, i64 0, i64 0)
  br label %37

37:                                               ; preds = %33, %0
  %38 = phi i8* [ getelementptr inbounds ([3 x i8], [3 x i8]* @.str.1, i64 0, i64 0), %0 ], [ %36, %33 ]
  %39 = call i32 (i8*, ...) @printf(i8* nonnull dereferenceable(1) %38)
  call void @llvm.lifetime.end.p0i8(i64 100, i8* nonnull %4) #4
  call void @llvm.lifetime.end.p0i8(i64 100, i8* nonnull %3) #4
  ret void
}

; Function Attrs: argmemonly mustprogress nofree nosync nounwind willreturn
declare void @llvm.lifetime.start.p0i8(i64 immarg, i8* nocapture) #1

; Function Attrs: nofree nounwind
declare noundef i32 @__isoc99_scanf(i8* nocapture noundef readonly, ...) local_unnamed_addr #2

; Function Attrs: argmemonly mustprogress nofree nounwind readonly willreturn
declare i64 @strlen(i8* nocapture) local_unnamed_addr #3

; Function Attrs: nofree nounwind
declare noundef i32 @printf(i8* nocapture noundef readonly, ...) local_unnamed_addr #2

; Function Attrs: argmemonly mustprogress nofree nosync nounwind willreturn
declare void @llvm.lifetime.end.p0i8(i64 immarg, i8* nocapture) #1


!llvm.module.flags = !{!0, !1, !2, !3}
!llvm.ident = !{!4}

!0 = !{i32 1, !"wchar_size", i32 4}
!1 = !{i32 7, !"PIC Level", i32 2}
!2 = !{i32 7, !"PIE Level", i32 2}
!3 = !{i32 7, !"uwtable", i32 1}
!4 = !{!"clang version 13.0.0"}
!5 = !{!6, !6, i64 0}
!6 = !{!"omnipotent char", !7, i64 0}
!7 = !{!"Simple C/C++ TBAA"}
!8 = distinct !{!8, !9}
!9 = !{!"llvm.loop.mustprogress"}
!10 = distinct !{!10, !9}
